target datalayout = "e-m:e-p270:32:32-p271:32:32-p272:64:64-i64:64-i128:128-f80:128-n8:16:32:64-S128"
target triple = "x86_64-pc-linux-gnu"

@php_output_default_handler_name = hidden constant [23 x i8] c"default output handler\00", align 16

; Function Attrs: nounwind uwtable
define dso_local void @php_output_handler_free(ptr noundef %0) #0 {
  %2 = alloca ptr, align 8
  store ptr %0, ptr %2, align 8, !tbaa !27
  %3 = load ptr, ptr %2, align 8, !tbaa !27
  %4 = load ptr, ptr %3, align 8, !tbaa !55
  %5 = icmp ne ptr %4, null
  br i1 %5, label %6, label %12

6:                                                ; preds = %1
  %7 = load ptr, ptr %2, align 8, !tbaa !27
  %8 = load ptr, ptr %7, align 8, !tbaa !55
  call void @php_output_handler_dtor(ptr noundef %8)
  %9 = load ptr, ptr %2, align 8, !tbaa !27
  %10 = load ptr, ptr %9, align 8, !tbaa !55
  call void @_efree(ptr noundef %10)
  %11 = load ptr, ptr %2, align 8, !tbaa !27
  store ptr null, ptr %11, align 8, !tbaa !55
  br label %12

12:                                               ; preds = %6, %1
  ret void
}

; Function Attrs: nounwind uwtable
define dso_local i32 @php_output_start_user(ptr noundef %0, i64 noundef %1, i32 noundef %2) #0 {
  %4 = alloca i32, align 4
  %5 = alloca ptr, align 8
  %6 = alloca i64, align 8
  %7 = alloca i32, align 4
  %8 = alloca ptr, align 8
  %9 = alloca i32, align 4
  store ptr %0, ptr %5, align 8, !tbaa !10
  store i64 %1, ptr %6, align 8, !tbaa !17
  store i32 %2, ptr %7, align 4, !tbaa !57
  call void @llvm.lifetime.start.p0(i64 8, ptr %8) #15
  %10 = load ptr, ptr %5, align 8, !tbaa !10
  %11 = icmp ne ptr %10, null
  br i1 %11, label %12, label %17

12:                                               ; preds = %3
  %13 = load ptr, ptr %5, align 8, !tbaa !10
  %14 = load i64, ptr %6, align 8, !tbaa !17
  %15 = load i32, ptr %7, align 4, !tbaa !57
  %16 = call ptr @php_output_handler_create_user(ptr noundef %13, i64 noundef %14, i32 noundef %15)
  store ptr %16, ptr %8, align 8, !tbaa !55
  br label %21

17:                                               ; preds = %3
  %18 = load i64, ptr %6, align 8, !tbaa !17
  %19 = load i32, ptr %7, align 4, !tbaa !57
  %20 = call ptr @php_output_handler_create_internal(ptr noundef @php_output_default_handler_name, i64 noundef 22, ptr noundef @php_output_handler_default_func, i64 noundef %18, i32 noundef %19)
  store ptr %20, ptr %8, align 8, !tbaa !55
  br label %21

21:                                               ; preds = %17, %12
  %22 = load ptr, ptr %8, align 8, !tbaa !55
  %23 = call i32 @php_output_handler_start(ptr noundef %22)
  %24 = icmp eq i32 0, %23
  br i1 %24, label %25, label %26

25:                                               ; preds = %21
  store i32 0, ptr %4, align 4
  store i32 1, ptr %9, align 4
  br label %27

26:                                               ; preds = %21
  call void @php_output_handler_free(ptr noundef %8)
  store i32 -1, ptr %4, align 4
  store i32 1, ptr %9, align 4
  br label %27

27:                                               ; preds = %26, %25
  call void @llvm.lifetime.end.p0(i64 8, ptr %8) #15
  %28 = load i32, ptr %4, align 4
  ret i32 %28
}