; Function Attrs: nounwind uwtable
define dso_local range(i32 -1, 1) i32 @php_output_start_user(ptr noundef %0, i64 noundef %1, i32 noundef %2) local_unnamed_addr #0 {
  %.not = icmp eq ptr %0, null
  br i1 %.not, label %6, label %4

4:                                                ; preds = %3
  %5 = tail call ptr @php_output_handler_create_user(ptr noundef nonnull %0, i64 noundef %1, i32 noundef %2)
  br label %8

6:                                                ; preds = %3
  %7 = tail call ptr @php_output_handler_create_internal(ptr noundef nonnull @php_output_default_handler_name, i64 noundef 22, ptr noundef nonnull @php_output_handler_default_func, i64 noundef %1, i32 noundef %2)
  br label %8

8:                                                ; preds = %6, %4
  %storemerge = phi ptr [ %7, %6 ], [ %5, %4 ]
  %9 = tail call i32 @php_output_handler_start(ptr noundef %storemerge)
  %10 = icmp eq i32 %9, 0
  br i1 %10, label %php_output_handler_free.exit, label %11

11:                                               ; preds = %8
  %.not.i = icmp eq ptr %storemerge, null
  br i1 %.not.i, label %php_output_handler_free.exit, label %12

12:                                               ; preds = %11
  tail call void @php_output_handler_dtor(ptr noundef nonnull %storemerge)
  tail call void @_efree(ptr noundef nonnull %storemerge) #22
  br label %php_output_handler_free.exit

php_output_handler_free.exit:                     ; preds = %12, %11, %8
  %.0 = phi i32 [ 0, %8 ], [ -1, %11 ], [ -1, %12 ]
  ret i32 %.0
}